target datalayout = "e-m:e-p270:32:32-p271:32:32-p272:64:64-i64:64-i128:128-f80:128-n8:16:32:64-S128"
target triple = "x86_64-pc-linux-gnu"

%struct._header_field_info = type { ptr, ptr, i32, i32, ptr, i64, ptr, i32, i32, i32, i32, ptr }
%struct.expert_field = type { i32, i32 }
%struct._packet_info = type { ptr, ptr, i32, i32, %struct.nstime_t, %struct.nstime_t, %struct.nstime_t, i8, ptr, ptr, ptr, ptr, %struct._address, %struct._address, %struct._address, %struct._address, %struct._address, %struct._address, i32, ptr, i8, [3 x i8], %struct.anon, i32, i32, i32, i32, ptr, i8, ptr, ptr, i16, i16, i32, i32, i16, i32, i32, ptr, ptr, ptr, i8, i8, i16, i16, i16, i32, i16, i16, ptr, ptr, ptr, ptr, ptr, i32, i32 }
%struct.nstime_t = type { i64, i32 }
%struct._address = type { i32, i32, ptr, ptr }
%struct.anon = type { i8, [3 x i8] }

@ei_lsd_field = internal global %struct.expert_field zeroinitializer, align 4
@.str.18 = private unnamed_addr constant [2 x i8] c":\00", align 1
@g_ascii_table = external constant ptr, align 8
@.str.21 = private unnamed_addr constant [3 x i8] c"%s\00", align 1
@.str.22 = private unnamed_addr constant [19 x i8] c"%s field malformed\00", align 1

; Function Attrs: null_pointer_is_valid sspstrong uwtable
define internal zeroext i1 @parse_string_field(ptr noundef %0, i32 noundef %1, ptr noundef %2, ptr noundef %3, i32 noundef %4, ptr noundef %5, ptr noundef %6) #0 {
  %8 = alloca i1, align 1
  %9 = alloca ptr, align 8
  %10 = alloca i32, align 4
  %11 = alloca ptr, align 8
  %12 = alloca ptr, align 8
  %13 = alloca i32, align 4
  %14 = alloca ptr, align 8
  %15 = alloca ptr, align 8
  %16 = alloca ptr, align 8
  %17 = alloca ptr, align 8
  %18 = alloca ptr, align 8
  %19 = alloca ptr, align 8
  %20 = alloca ptr, align 8
  %21 = alloca i32, align 4
  store ptr %0, ptr %9, align 8
  store i32 %1, ptr %10, align 4
  store ptr %2, ptr %11, align 8
  store ptr %3, ptr %12, align 8
  store i32 %4, ptr %13, align 4
  store ptr %5, ptr %14, align 8
  store ptr %6, ptr %15, align 8
  call void @llvm.lifetime.start.p0(i64 8, ptr %16) #5
  call void @llvm.lifetime.start.p0(i64 8, ptr %17) #5
  %22 = load i32, ptr %10, align 4
  %23 = call ptr @proto_registrar_get_nth(i32 noundef %22)
  store ptr %23, ptr %17, align 8
  call void @llvm.lifetime.start.p0(i64 8, ptr %18) #5
  call void @llvm.lifetime.start.p0(i64 8, ptr %19) #5
  call void @llvm.lifetime.start.p0(i64 8, ptr %20) #5
  %24 = load ptr, ptr %12, align 8
  %25 = load i32, ptr %13, align 4
  %26 = load ptr, ptr %14, align 8
  %27 = call i32 @tvb_find_line_end(ptr noundef %24, i32 noundef %25, i32 noundef -1, ptr noundef %26, i1 noundef zeroext false)
  %28 = load ptr, ptr %15, align 8
  store i32 %27, ptr %28, align 4
  %29 = load ptr, ptr %15, align 8
  %30 = load i32, ptr %29, align 4
  %31 = icmp slt i32 %30, 0
  br i1 %31, label %32, label %33

32:                                               ; preds = %7
  store i1 false, ptr %8, align 1
  store i32 1, ptr %21, align 4
  br label %103

33:                                               ; preds = %7
  %34 = load ptr, ptr %11, align 8
  %35 = getelementptr inbounds nuw %struct._packet_info, ptr %34, i32 0, i32 51
  %36 = load ptr, ptr %35, align 8
  %37 = load ptr, ptr %12, align 8
  %38 = load i32, ptr %13, align 4
  %39 = load ptr, ptr %15, align 8
  %40 = load i32, ptr %39, align 4
  %41 = call ptr @tvb_get_string_enc(ptr noundef %36, ptr noundef %37, i32 noundef %38, i32 noundef %40, i32 noundef 0)
  store ptr %41, ptr %16, align 8
  %42 = load ptr, ptr %16, align 8
  %43 = load ptr, ptr %17, align 8
  %44 = getelementptr inbounds nuw %struct._header_field_info, ptr %43, i32 0, i32 0
  %45 = load ptr, ptr %44, align 8
  %46 = load ptr, ptr %17, align 8
  %47 = getelementptr inbounds nuw %struct._header_field_info, ptr %46, i32 0, i32 0
  %48 = load ptr, ptr %47, align 8
  %49 = call i64 @strlen(ptr noundef %48) #6
  %50 = call i32 @g_ascii_strncasecmp(ptr noundef %42, ptr noundef %45, i64 noundef %49)
  %51 = icmp eq i32 %50, 0
  br i1 %51, label %52, label %87

52:                                               ; preds = %33
  %53 = load ptr, ptr %11, align 8
  %54 = getelementptr inbounds nuw %struct._packet_info, ptr %53, i32 0, i32 51
  %55 = load ptr, ptr %54, align 8
  %56 = load ptr, ptr %16, align 8
  %57 = call ptr @wmem_strsplit(ptr noundef %55, ptr noundef %56, ptr noundef @.str.18, i32 noundef 2)
  store ptr %57, ptr %18, align 8
  %58 = load ptr, ptr %18, align 8
  %59 = getelementptr ptr, ptr %58, i64 1
  %60 = load ptr, ptr %59, align 8
  store ptr %60, ptr %20, align 8
  %61 = load ptr, ptr %20, align 8
  %62 = icmp ne ptr %61, null
  br i1 %62, label %63, label %86

63:                                               ; preds = %52
  br label %64

64:                                               ; preds = %74, %63
  %65 = load ptr, ptr @g_ascii_table, align 8
  %66 = load ptr, ptr %20, align 8
  %67 = load i8, ptr %66, align 1
  %68 = zext i8 %67 to i64
  %69 = getelementptr i16, ptr %65, i64 %68
  %70 = load i16, ptr %69, align 2
  %71 = zext i16 %70 to i32
  %72 = and i32 %71, 256
  %73 = icmp ne i32 %72, 0
  br i1 %73, label %74, label %77

74:                                               ; preds = %64
  %75 = load ptr, ptr %20, align 8
  %76 = getelementptr i8, ptr %75, i32 1
  store ptr %76, ptr %20, align 8
  br label %64, !llvm.loop !8

77:                                               ; preds = %64
  %78 = load ptr, ptr %9, align 8
  %79 = load i32, ptr %10, align 4
  %80 = load ptr, ptr %12, align 8
  %81 = load i32, ptr %13, align 4
  %82 = load ptr, ptr %15, align 8
  %83 = load i32, ptr %82, align 4
  %84 = load ptr, ptr %20, align 8
  %85 = call ptr @proto_tree_add_string(ptr noundef %78, i32 noundef %79, ptr noundef %80, i32 noundef %81, i32 noundef %83, ptr noundef %84)
  store i1 true, ptr %8, align 1
  store i32 1, ptr %21, align 4
  br label %103

86:                                               ; preds = %52
  br label %87

87:                                               ; preds = %86, %33
  %88 = load ptr, ptr %9, align 8
  %89 = load i32, ptr %10, align 4
  %90 = load ptr, ptr %12, align 8
  %91 = load i32, ptr %13, align 4
  %92 = load ptr, ptr %15, align 8
  %93 = load i32, ptr %92, align 4
  %94 = load ptr, ptr %16, align 8
  %95 = load ptr, ptr %16, align 8
  %96 = call ptr (ptr, i32, ptr, i32, i32, ptr, ptr, ...) @proto_tree_add_string_format(ptr noundef %88, i32 noundef %89, ptr noundef %90, i32 noundef %91, i32 noundef %93, ptr noundef %94, ptr noundef @.str.21, ptr noundef %95)
  store ptr %96, ptr %19, align 8
  %97 = load ptr, ptr %11, align 8
  %98 = load ptr, ptr %19, align 8
  %99 = load ptr, ptr %17, align 8
  %100 = getelementptr inbounds nuw %struct._header_field_info, ptr %99, i32 0, i32 0
  %101 = load ptr, ptr %100, align 8
  %102 = call ptr (ptr, ptr, ptr, ptr, ...) @expert_add_info_format(ptr noundef %97, ptr noundef %98, ptr noundef @ei_lsd_field, ptr noundef @.str.22, ptr noundef %101)
  store i1 true, ptr %8, align 1
  store i32 1, ptr %21, align 4
  br label %103

103:                                              ; preds = %87, %77, %32
  call void @llvm.lifetime.end.p0(i64 8, ptr %20) #5
  call void @llvm.lifetime.end.p0(i64 8, ptr %19) #5
  call void @llvm.lifetime.end.p0(i64 8, ptr %18) #5
  call void @llvm.lifetime.end.p0(i64 8, ptr %17) #5
  call void @llvm.lifetime.end.p0(i64 8, ptr %16) #5
  %104 = load i1, ptr %8, align 1
  ret i1 %104
}