; Function Attrs: null_pointer_is_valid sspstrong uwtable
define internal fastcc noundef zeroext i1 @parse_string_field(ptr noundef %0, i32 noundef %1, ptr noundef %2, ptr noundef %3, i32 noundef %4, ptr noundef %5, ptr noundef captures(none) initializes((0, 4)) %6) unnamed_addr #0 {
  %8 = tail call ptr @proto_registrar_get_nth(i32 noundef %1)
  %9 = tail call i32 @tvb_find_line_end(ptr noundef %3, i32 noundef %4, i32 noundef -1, ptr noundef %5, i1 noundef zeroext false)
  store i32 %9, ptr %6, align 4
  %10 = icmp sgt i32 %9, -1
  br i1 %10, label %11, label %40

11:                                               ; preds = %7
  %12 = getelementptr inbounds nuw i8, ptr %2, i64 408
  %13 = load ptr, ptr %12, align 8
  %14 = tail call ptr @tvb_get_string_enc(ptr noundef %13, ptr noundef %3, i32 noundef %4, i32 noundef %9, i32 noundef 0)
  %15 = load ptr, ptr %8, align 8
  %16 = tail call i64 @strlen(ptr noundef %15) #5
  %17 = tail call i32 @g_ascii_strncasecmp(ptr noundef %14, ptr noundef %15, i64 noundef %16)
  %18 = icmp eq i32 %17, 0
  br i1 %18, label %19, label %35

19:                                               ; preds = %11
  %20 = load ptr, ptr %12, align 8
  %21 = tail call ptr @wmem_strsplit(ptr noundef %20, ptr noundef %14, ptr noundef nonnull @.str.18, i32 noundef 2)
  %22 = getelementptr i8, ptr %21, i64 8
  %23 = load ptr, ptr %22, align 8
  %.not = icmp eq ptr %23, null
  br i1 %.not, label %35, label %.preheader

.preheader:                                       ; preds = %19
  %24 = load ptr, ptr @g_ascii_table, align 8
  br label %25

25:                                               ; preds = %25, %.preheader
  %.0 = phi ptr [ %31, %25 ], [ %23, %.preheader ]
  %26 = load i8, ptr %.0, align 1
  %27 = zext i8 %26 to i64
  %28 = getelementptr i16, ptr %24, i64 %27
  %29 = load i16, ptr %28, align 2
  %30 = and i16 %29, 256
  %.not38 = icmp eq i16 %30, 0
  %31 = getelementptr i8, ptr %.0, i64 1
  br i1 %.not38, label %32, label %25, !llvm.loop !6

32:                                               ; preds = %25
  %33 = load i32, ptr %6, align 4
  %34 = tail call ptr @proto_tree_add_string(ptr noundef %0, i32 noundef %1, ptr noundef %3, i32 noundef %4, i32 noundef %33, ptr noundef %.0)
  br label %40

35:                                               ; preds = %19, %11
  %36 = load i32, ptr %6, align 4
  %37 = tail call ptr (ptr, i32, ptr, i32, i32, ptr, ptr, ...) @proto_tree_add_string_format(ptr noundef %0, i32 noundef %1, ptr noundef %3, i32 noundef %4, i32 noundef %36, ptr noundef %14, ptr noundef nonnull @.str.21, ptr noundef %14)
  %38 = load ptr, ptr %8, align 8
  %39 = tail call ptr (ptr, ptr, ptr, ptr, ...) @expert_add_info_format(ptr noundef %2, ptr noundef %37, ptr noundef nonnull @ei_lsd_field, ptr noundef nonnull @.str.22, ptr noundef %38)
  br label %40

40:                                               ; preds = %7, %35, %32
  ret i1 %10
}